; Function Attrs: nounwind uwtable
define hidden void @zif_session_abort(ptr nocapture noundef readonly %0, ptr nocapture noundef writeonly %1) #0 {
  %3 = getelementptr inbounds i8, ptr %0, i64 44
  %4 = load i32, ptr %3, align 4
  %.not = icmp eq i32 %4, 0
  br i1 %.not, label %.critedge, label %5

5:                                                ; preds = %2
  tail call void @zend_wrong_parameters_none_error() #23
  %6 = load ptr, ptr getelementptr inbounds (%struct._zend_executor_globals, ptr @executor_globals, i64 0, i32 50), align 8
  %7 = icmp ne ptr %6, null
  tail call void @llvm.assume(i1 %7)
  br label %22

.critedge:                                        ; preds = %2
  %8 = load i32, ptr getelementptr inbounds (%struct._php_ps_globals, ptr @ps_globals, i64 0, i32 14), align 8
  %.not3 = icmp eq i32 %8, 2
  br i1 %.not3, label %11, label %9

9:                                                ; preds = %.critedge
  %10 = getelementptr inbounds i8, ptr %1, i64 8
  store i32 2, ptr %10, align 8
  br label %22

11:                                               ; preds = %.critedge
  %12 = load ptr, ptr getelementptr inbounds (%struct._php_ps_globals, ptr @ps_globals, i64 0, i32 13), align 16
  %.not.i = icmp eq ptr %12, null
  br i1 %.not.i, label %13, label %16

13:                                               ; preds = %11
  %14 = load i8, ptr getelementptr inbounds (%struct._php_ps_globals, ptr @ps_globals, i64 0, i32 26), align 8
  %15 = and i8 %14, 1
  %.not1.i = icmp eq i8 %15, 0
  br i1 %.not1.i, label %php_session_abort.exit, label %16

16:                                               ; preds = %13, %11
  %17 = load ptr, ptr getelementptr inbounds (%struct._php_ps_globals, ptr @ps_globals, i64 0, i32 11), align 16
  %18 = getelementptr inbounds i8, ptr %17, i64 16
  %19 = load ptr, ptr %18, align 8
  %20 = tail call i32 %19(ptr noundef nonnull getelementptr inbounds (%struct._php_ps_globals, ptr @ps_globals, i64 0, i32 13)) #23
  br label %php_session_abort.exit

php_session_abort.exit:                           ; preds = %13, %16
  store i32 1, ptr getelementptr inbounds (%struct._php_ps_globals, ptr @ps_globals, i64 0, i32 14), align 8
  %21 = getelementptr inbounds i8, ptr %1, i64 8
  store i32 3, ptr %21, align 8
  br label %22

22:                                               ; preds = %php_session_abort.exit, %9, %5
  ret void
}